target datalayout = "e-m:e-p270:32:32-p271:32:32-p272:64:64-i64:64-i128:128-f80:128-n8:16:32:64-S128"
target triple = "x86_64-pc-linux-gnu"

%struct.ForEachState = type { ptr, i32 }
%struct.List = type { i32, i32, i32, ptr, [0 x %union.ListCell] }
%union.ListCell = type { ptr }
%struct.TargetEntry = type { %struct.Expr, ptr, i16, ptr, i32, i32, i16, i8 }
%struct.Expr = type { i32 }
%struct.SortGroupClause = type { i32, i32, i32, i32, i8, i8, i8 }

@.str = private unnamed_addr constant [50 x i8] c"ORDER/GROUP BY expression not found in targetlist\00", align 1
@.str.1 = private unnamed_addr constant [8 x i8] c"tlist.c\00", align 1
@__func__.get_sortgroupref_tle = private unnamed_addr constant [21 x i8] c"get_sortgroupref_tle\00", align 1

; Function Attrs: nounwind uwtable
define dso_local ptr @get_sortgroupref_tle(i32 noundef %0, ptr noundef %1) #0 {
  %3 = alloca ptr, align 8
  %4 = alloca i32, align 4
  %5 = alloca ptr, align 8
  %6 = alloca ptr, align 8
  %7 = alloca %struct.ForEachState, align 8
  %8 = alloca i32, align 4
  %9 = alloca ptr, align 8
  store i32 %0, ptr %4, align 4
  store ptr %1, ptr %5, align 8
  call void @llvm.lifetime.start.p0(i64 8, ptr %6) #7
  call void @llvm.lifetime.start.p0(i64 16, ptr %7) #7
  %10 = getelementptr inbounds nuw %struct.ForEachState, ptr %7, i32 0, i32 0
  %11 = load ptr, ptr %5, align 8
  store ptr %11, ptr %10, align 8
  %12 = getelementptr inbounds nuw %struct.ForEachState, ptr %7, i32 0, i32 1
  store i32 0, ptr %12, align 8
  %13 = getelementptr i8, ptr %7, i64 12
  call void @llvm.memset.p0.i64(ptr align 4 %13, i8 0, i64 4, i1 false)
  br label %14

14:                                               ; preds = %54, %2
  %15 = getelementptr inbounds nuw %struct.ForEachState, ptr %7, i32 0, i32 0
  %16 = load ptr, ptr %15, align 8
  %17 = icmp ne ptr %16, null
  br i1 %17, label %18, label %35

18:                                               ; preds = %14
  %19 = getelementptr inbounds nuw %struct.ForEachState, ptr %7, i32 0, i32 1
  %20 = load i32, ptr %19, align 8
  %21 = getelementptr inbounds nuw %struct.ForEachState, ptr %7, i32 0, i32 0
  %22 = load ptr, ptr %21, align 8
  %23 = getelementptr inbounds nuw %struct.List, ptr %22, i32 0, i32 1
  %24 = load i32, ptr %23, align 4
  %25 = icmp slt i32 %20, %24
  br i1 %25, label %26, label %35

26:                                               ; preds = %18
  %27 = getelementptr inbounds nuw %struct.ForEachState, ptr %7, i32 0, i32 0
  %28 = load ptr, ptr %27, align 8
  %29 = getelementptr inbounds nuw %struct.List, ptr %28, i32 0, i32 3
  %30 = load ptr, ptr %29, align 8
  %31 = getelementptr inbounds nuw %struct.ForEachState, ptr %7, i32 0, i32 1
  %32 = load i32, ptr %31, align 8
  %33 = sext i32 %32 to i64
  %34 = getelementptr inbounds %union.ListCell, ptr %30, i64 %33
  store ptr %34, ptr %6, align 8
  br label %36

35:                                               ; preds = %18, %14
  store ptr null, ptr %6, align 8
  br label %36

36:                                               ; preds = %35, %26
  %37 = phi i32 [ 1, %26 ], [ 0, %35 ]
  %38 = icmp ne i32 %37, 0
  br i1 %38, label %40, label %39

39:                                               ; preds = %36
  store i32 2, ptr %8, align 4
  br label %58

40:                                               ; preds = %36
  call void @llvm.lifetime.start.p0(i64 8, ptr %9) #7
  %41 = load ptr, ptr %6, align 8
  %42 = load ptr, ptr %41, align 8
  store ptr %42, ptr %9, align 8
  %43 = load ptr, ptr %9, align 8
  %44 = getelementptr inbounds nuw %struct.TargetEntry, ptr %43, i32 0, i32 4
  %45 = load i32, ptr %44, align 8
  %46 = load i32, ptr %4, align 4
  %47 = icmp eq i32 %45, %46
  br i1 %47, label %48, label %50

48:                                               ; preds = %40
  %49 = load ptr, ptr %9, align 8
  store ptr %49, ptr %3, align 8
  store i32 1, ptr %8, align 4
  br label %51

50:                                               ; preds = %40
  store i32 0, ptr %8, align 4
  br label %51

51:                                               ; preds = %50, %48
  call void @llvm.lifetime.end.p0(i64 8, ptr %9) #7
  %52 = load i32, ptr %8, align 4
  switch i32 %52, label %58 [
    i32 0, label %53
  ]

53:                                               ; preds = %51
  br label %54

54:                                               ; preds = %53
  %55 = getelementptr inbounds nuw %struct.ForEachState, ptr %7, i32 0, i32 1
  %56 = load i32, ptr %55, align 8
  %57 = add i32 %56, 1
  store i32 %57, ptr %55, align 8
  br label %14, !llvm.loop !15

58:                                               ; preds = %51, %39
  call void @llvm.lifetime.end.p0(i64 16, ptr %7) #7
  %59 = load i32, ptr %8, align 4
  switch i32 %59, label %71 [
    i32 2, label %60
  ]

60:                                               ; preds = %58
  br label %61

61:                                               ; preds = %60
  br i1 true, label %62, label %64

62:                                               ; preds = %61
  %63 = call zeroext i1 @errstart_cold(i32 noundef 21, ptr noundef null) #8
  br i1 %63, label %66, label %68

64:                                               ; preds = %61
  %65 = call zeroext i1 @errstart(i32 noundef 21, ptr noundef null)
  br i1 %65, label %66, label %68

66:                                               ; preds = %64, %62
  %67 = call i32 (ptr, ...) @errmsg_internal(ptr noundef @.str)
  call void @errfinish(ptr noundef @.str.1, i32 noundef 357, ptr noundef @__func__.get_sortgroupref_tle)
  br label %68

68:                                               ; preds = %66, %64, %62
  unreachable

69:                                               ; No predecessors!
  br label %70

70:                                               ; preds = %69
  store ptr null, ptr %3, align 8
  store i32 1, ptr %8, align 4
  br label %71

71:                                               ; preds = %70, %58
  call void @llvm.lifetime.end.p0(i64 8, ptr %6) #7
  %72 = load ptr, ptr %3, align 8
  ret ptr %72
}

; Function Attrs: nounwind uwtable
define dso_local ptr @get_sortgroupclause_tle(ptr noundef %0, ptr noundef %1) #0 {
  %3 = alloca ptr, align 8
  %4 = alloca ptr, align 8
  store ptr %0, ptr %3, align 8
  store ptr %1, ptr %4, align 8
  %5 = load ptr, ptr %3, align 8
  %6 = getelementptr inbounds nuw %struct.SortGroupClause, ptr %5, i32 0, i32 1
  %7 = load i32, ptr %6, align 4
  %8 = load ptr, ptr %4, align 8
  %9 = call ptr @get_sortgroupref_tle(i32 noundef %7, ptr noundef %8)
  ret ptr %9
}

; Function Attrs: inlinehint nounwind uwtable
define internal i32 @list_length(ptr noundef %0) #4 {
  %2 = alloca ptr, align 8
  store ptr %0, ptr %2, align 8
  %3 = load ptr, ptr %2, align 8
  %4 = icmp ne ptr %3, null
  br i1 %4, label %5, label %9

5:                                                ; preds = %1
  %6 = load ptr, ptr %2, align 8
  %7 = getelementptr inbounds nuw %struct.List, ptr %6, i32 0, i32 1
  %8 = load i32, ptr %7, align 4
  br label %10

9:                                                ; preds = %1
  br label %10

10:                                               ; preds = %9, %5
  %11 = phi i32 [ %8, %5 ], [ 0, %9 ]
  ret i32 %11
}

; Function Attrs: nounwind uwtable
define dso_local ptr @extract_grouping_cols(ptr noundef %0, ptr noundef %1) #0 {
  %3 = alloca ptr, align 8
  %4 = alloca ptr, align 8
  %5 = alloca ptr, align 8
  %6 = alloca i32, align 4
  %7 = alloca i32, align 4
  %8 = alloca ptr, align 8
  %9 = alloca %struct.ForEachState, align 8
  %10 = alloca ptr, align 8
  %11 = alloca ptr, align 8
  store ptr %0, ptr %3, align 8
  store ptr %1, ptr %4, align 8
  call void @llvm.lifetime.start.p0(i64 8, ptr %5) #7
  call void @llvm.lifetime.start.p0(i64 4, ptr %6) #7
  %12 = load ptr, ptr %3, align 8
  %13 = call i32 @list_length(ptr noundef %12)
  store i32 %13, ptr %6, align 4
  call void @llvm.lifetime.start.p0(i64 4, ptr %7) #7
  store i32 0, ptr %7, align 4
  call void @llvm.lifetime.start.p0(i64 8, ptr %8) #7
  %14 = load i32, ptr %6, align 4
  %15 = sext i32 %14 to i64
  %16 = mul i64 2, %15
  %17 = call ptr @palloc(i64 noundef %16)
  store ptr %17, ptr %5, align 8
  call void @llvm.lifetime.start.p0(i64 16, ptr %9) #7
  %18 = getelementptr inbounds nuw %struct.ForEachState, ptr %9, i32 0, i32 0
  %19 = load ptr, ptr %3, align 8
  store ptr %19, ptr %18, align 8
  %20 = getelementptr inbounds nuw %struct.ForEachState, ptr %9, i32 0, i32 1
  store i32 0, ptr %20, align 8
  %21 = getelementptr i8, ptr %9, i64 12
  call void @llvm.memset.p0.i64(ptr align 4 %21, i8 0, i64 4, i1 false)
  br label %22

22:                                               ; preds = %62, %2
  %23 = getelementptr inbounds nuw %struct.ForEachState, ptr %9, i32 0, i32 0
  %24 = load ptr, ptr %23, align 8
  %25 = icmp ne ptr %24, null
  br i1 %25, label %26, label %43

26:                                               ; preds = %22
  %27 = getelementptr inbounds nuw %struct.ForEachState, ptr %9, i32 0, i32 1
  %28 = load i32, ptr %27, align 8
  %29 = getelementptr inbounds nuw %struct.ForEachState, ptr %9, i32 0, i32 0
  %30 = load ptr, ptr %29, align 8
  %31 = getelementptr inbounds nuw %struct.List, ptr %30, i32 0, i32 1
  %32 = load i32, ptr %31, align 4
  %33 = icmp slt i32 %28, %32
  br i1 %33, label %34, label %43

34:                                               ; preds = %26
  %35 = getelementptr inbounds nuw %struct.ForEachState, ptr %9, i32 0, i32 0
  %36 = load ptr, ptr %35, align 8
  %37 = getelementptr inbounds nuw %struct.List, ptr %36, i32 0, i32 3
  %38 = load ptr, ptr %37, align 8
  %39 = getelementptr inbounds nuw %struct.ForEachState, ptr %9, i32 0, i32 1
  %40 = load i32, ptr %39, align 8
  %41 = sext i32 %40 to i64
  %42 = getelementptr inbounds %union.ListCell, ptr %38, i64 %41
  store ptr %42, ptr %8, align 8
  br label %44

43:                                               ; preds = %26, %22
  store ptr null, ptr %8, align 8
  br label %44

44:                                               ; preds = %43, %34
  %45 = phi i32 [ 1, %34 ], [ 0, %43 ]
  %46 = icmp ne i32 %45, 0
  br i1 %46, label %48, label %47

47:                                               ; preds = %44
  call void @llvm.lifetime.end.p0(i64 16, ptr %9) #7
  br label %66

48:                                               ; preds = %44
  call void @llvm.lifetime.start.p0(i64 8, ptr %10) #7
  %49 = load ptr, ptr %8, align 8
  %50 = load ptr, ptr %49, align 8
  store ptr %50, ptr %10, align 8
  call void @llvm.lifetime.start.p0(i64 8, ptr %11) #7
  %51 = load ptr, ptr %10, align 8
  %52 = load ptr, ptr %4, align 8
  %53 = call ptr @get_sortgroupclause_tle(ptr noundef %51, ptr noundef %52)
  store ptr %53, ptr %11, align 8
  %54 = load ptr, ptr %11, align 8
  %55 = getelementptr inbounds nuw %struct.TargetEntry, ptr %54, i32 0, i32 2
  %56 = load i16, ptr %55, align 8
  %57 = load ptr, ptr %5, align 8
  %58 = load i32, ptr %7, align 4
  %59 = add i32 %58, 1
  store i32 %59, ptr %7, align 4
  %60 = sext i32 %58 to i64
  %61 = getelementptr inbounds i16, ptr %57, i64 %60
  store i16 %56, ptr %61, align 2
  call void @llvm.lifetime.end.p0(i64 8, ptr %11) #7
  call void @llvm.lifetime.end.p0(i64 8, ptr %10) #7
  br label %62

62:                                               ; preds = %48
  %63 = getelementptr inbounds nuw %struct.ForEachState, ptr %9, i32 0, i32 1
  %64 = load i32, ptr %63, align 8
  %65 = add i32 %64, 1
  store i32 %65, ptr %63, align 8
  br label %22, !llvm.loop !21

66:                                               ; preds = %47
  %67 = load ptr, ptr %5, align 8
  call void @llvm.lifetime.end.p0(i64 8, ptr %8) #7
  call void @llvm.lifetime.end.p0(i64 4, ptr %7) #7
  call void @llvm.lifetime.end.p0(i64 4, ptr %6) #7
  call void @llvm.lifetime.end.p0(i64 8, ptr %5) #7
  ret ptr %67
}